target datalayout = "e-m:e-p270:32:32-p271:32:32-p272:64:64-i64:64-i128:128-f80:128-n8:16:32:64-S128"
target triple = "x86_64-pc-linux-gnu"

@starteam_tcp_handle = internal global ptr null, align 8

; Function Attrs: null_pointer_is_valid sspstrong uwtable
define internal zeroext i1 @dissect_starteam_heur(ptr noundef %0, ptr noundef %1, ptr noundef %2, ptr noundef %3) #0 {
  %5 = alloca i1, align 1
  %6 = alloca ptr, align 8
  %7 = alloca ptr, align 8
  %8 = alloca ptr, align 8
  %9 = alloca ptr, align 8
  %10 = alloca i32, align 4
  %11 = alloca i32, align 4
  %12 = alloca i32, align 4
  %13 = alloca ptr, align 8
  %14 = alloca i32, align 4
  store ptr %0, ptr %6, align 8
  store ptr %1, ptr %7, align 8
  store ptr %2, ptr %8, align 8
  store ptr %3, ptr %9, align 8
  %15 = load ptr, ptr %6, align 8
  %16 = call i32 @tvb_captured_length(ptr noundef %15)
  %17 = icmp uge i32 %16, 32
  br i1 %17, label %18, label %61

18:                                               ; preds = %4
  call void @llvm.lifetime.start.p0(i64 4, ptr %10) #4
  store i32 -1, ptr %10, align 4
  %19 = load ptr, ptr %6, align 8
  %20 = call i32 @tvb_get_ntohl(ptr noundef %19, i32 noundef 0)
  %21 = icmp eq i32 %20, 1097621870
  br i1 %21, label %22, label %23

22:                                               ; preds = %18
  store i32 4, ptr %10, align 4
  br label %29

23:                                               ; preds = %18
  %24 = load ptr, ptr %6, align 8
  %25 = call i32 @tvb_get_ntohl(ptr noundef %24, i32 noundef 20)
  %26 = icmp eq i32 %25, 1097621870
  br i1 %26, label %27, label %28

27:                                               ; preds = %23
  store i32 24, ptr %10, align 4
  br label %28

28:                                               ; preds = %27, %23
  br label %29

29:                                               ; preds = %28, %22
  %30 = load i32, ptr %10, align 4
  %31 = icmp ne i32 %30, -1
  br i1 %31, label %32, label %57

32:                                               ; preds = %29
  call void @llvm.lifetime.start.p0(i64 4, ptr %11) #4
  call void @llvm.lifetime.start.p0(i64 4, ptr %12) #4
  %33 = load ptr, ptr %6, align 8
  %34 = load i32, ptr %10, align 4
  %35 = call i32 @tvb_get_letohl(ptr noundef %33, i32 noundef %34)
  store i32 %35, ptr %11, align 4
  %36 = load ptr, ptr %6, align 8
  %37 = load i32, ptr %10, align 4
  %38 = add i32 %37, 4
  %39 = call i32 @tvb_get_letohl(ptr noundef %36, i32 noundef %38)
  store i32 %39, ptr %12, align 4
  %40 = load i32, ptr %11, align 4
  %41 = load i32, ptr %12, align 4
  %42 = icmp eq i32 %40, %41
  br i1 %42, label %43, label %53

43:                                               ; preds = %32
  call void @llvm.lifetime.start.p0(i64 8, ptr %13) #4
  store ptr null, ptr %13, align 8
  %44 = load ptr, ptr %7, align 8
  %45 = call ptr @find_or_create_conversation(ptr noundef %44)
  store ptr %45, ptr %13, align 8
  %46 = load ptr, ptr %13, align 8
  %47 = load ptr, ptr @starteam_tcp_handle, align 8
  call void @conversation_set_dissector(ptr noundef %46, ptr noundef %47)
  %48 = load ptr, ptr %6, align 8
  %49 = load ptr, ptr %7, align 8
  %50 = load ptr, ptr %8, align 8
  %51 = load ptr, ptr %9, align 8
  %52 = call i32 @dissect_starteam(ptr noundef %48, ptr noundef %49, ptr noundef %50, ptr noundef %51)
  store i1 true, ptr %5, align 1
  store i32 1, ptr %14, align 4
  call void @llvm.lifetime.end.p0(i64 8, ptr %13) #4
  br label %54

53:                                               ; preds = %32
  store i32 0, ptr %14, align 4
  br label %54

54:                                               ; preds = %53, %43
  call void @llvm.lifetime.end.p0(i64 4, ptr %12) #4
  call void @llvm.lifetime.end.p0(i64 4, ptr %11) #4
  %55 = load i32, ptr %14, align 4
  switch i32 %55, label %58 [
    i32 0, label %56
  ]

56:                                               ; preds = %54
  br label %57

57:                                               ; preds = %56, %29
  store i32 0, ptr %14, align 4
  br label %58

58:                                               ; preds = %57, %54
  call void @llvm.lifetime.end.p0(i64 4, ptr %10) #4
  %59 = load i32, ptr %14, align 4
  switch i32 %59, label %64 [
    i32 0, label %60
    i32 1, label %62
  ]

60:                                               ; preds = %58
  br label %61

61:                                               ; preds = %60, %4
  store i1 false, ptr %5, align 1
  br label %62

62:                                               ; preds = %61, %58
  %63 = load i1, ptr %5, align 1
  ret i1 %63

64:                                               ; preds = %58
  unreachable
}