; Function Attrs: null_pointer_is_valid sspstrong uwtable
define internal noundef zeroext i1 @dissect_starteam_heur(ptr noundef %0, ptr noundef %1, ptr noundef %2, ptr noundef readnone captures(none) %3) #0 {
  %5 = tail call i32 @tvb_captured_length(ptr noundef %0)
  %6 = icmp ugt i32 %5, 31
  br i1 %6, label %7, label %.critedge.thread

7:                                                ; preds = %4
  %8 = tail call i32 @tvb_get_ntohl(ptr noundef %0, i32 noundef 0)
  %9 = icmp eq i32 %8, 1097621870
  br i1 %9, label %.thread, label %10

10:                                               ; preds = %7
  %11 = tail call i32 @tvb_get_ntohl(ptr noundef %0, i32 noundef 20)
  %.not = icmp eq i32 %11, 1097621870
  br i1 %.not, label %.thread, label %.critedge.thread

.thread:                                          ; preds = %7, %10
  %.02025 = phi i32 [ 24, %10 ], [ 4, %7 ]
  %12 = tail call i32 @tvb_get_letohl(ptr noundef %0, i32 noundef %.02025)
  %13 = add nuw nsw i32 %.02025, 4
  %14 = tail call i32 @tvb_get_letohl(ptr noundef %0, i32 noundef %13)
  %.not21 = icmp eq i32 %12, %14
  br i1 %.not21, label %.critedge, label %.critedge.thread

.critedge:                                        ; preds = %.thread
  %15 = tail call ptr @find_or_create_conversation(ptr noundef %1)
  %16 = load ptr, ptr @starteam_tcp_handle, align 8
  tail call void @conversation_set_dissector(ptr noundef %15, ptr noundef %16)
  %17 = tail call i32 @dissect_starteam(ptr noundef %0, ptr noundef %1, ptr noundef %2, ptr poison)
  br label %.critedge.thread

.critedge.thread:                                 ; preds = %10, %.thread, %4, %.critedge
  %.3 = phi i1 [ true, %.critedge ], [ false, %4 ], [ false, %.thread ], [ false, %10 ]
  ret i1 %.3
}